; Function Attrs: mustprogress nounwind uwtable
define hidden void @_ZNK13ConstantTable15fill_jump_tableEP17C2_MacroAssemblerP16MachConstantNode13GrowableArrayIP5LabelE(ptr nocapture noundef nonnull readonly align 8 dereferenceable(36) %0, ptr nocapture noundef readonly %1, ptr noundef %2, ptr nocapture noundef readonly %3) local_unnamed_addr #0 align 2 {
  %5 = tail call align 8 ptr @llvm.threadlocal.address.p0(ptr align 8 @_ZN6Thread12_thr_currentE)
  %6 = load ptr, ptr %5, align 8
  %7 = getelementptr inbounds i8, ptr %6, i64 1808
  %8 = load ptr, ptr %7, align 8
  %9 = getelementptr inbounds i8, ptr %8, i64 128
  %10 = load ptr, ptr %9, align 8
  %11 = getelementptr inbounds i8, ptr %10, i64 2288
  %12 = load ptr, ptr %11, align 8
  %13 = getelementptr inbounds i8, ptr %12, i64 572
  %14 = load i8, ptr %13, align 4
  %15 = trunc i8 %14 to i1
  br i1 %15, label %.loopexit, label %16

16:                                               ; preds = %4
  %17 = tail call noundef i32 @_ZN16MachConstantNode15constant_offsetEv(ptr noundef nonnull align 8 dereferenceable(104) %2) #10
  %18 = getelementptr inbounds i8, ptr %0, i64 28
  %19 = load i32, ptr %18, align 4
  %20 = sub nsw i32 %17, %19
  %21 = getelementptr inbounds i8, ptr %1, i64 8
  %22 = load ptr, ptr %21, align 8
  %23 = getelementptr inbounds i8, ptr %22, i64 80
  %24 = load ptr, ptr %23, align 8
  %25 = getelementptr inbounds i8, ptr %24, i64 8
  %26 = load ptr, ptr %25, align 8
  %27 = sext i32 %20 to i64
  %28 = getelementptr inbounds i8, ptr %26, i64 %27
  %29 = getelementptr inbounds i8, ptr %2, i64 32
  %30 = load i32, ptr %29, align 8
  %.not = icmp eq i32 %30, 0
  br i1 %.not, label %.loopexit, label %.lr.ph

.lr.ph:                                           ; preds = %16
  %31 = getelementptr inbounds i8, ptr %3, i64 8
  br label %32

32:                                               ; preds = %.lr.ph, %32
  %.014 = phi i32 [ 0, %.lr.ph ], [ %48, %32 ]
  %33 = zext i32 %.014 to i64
  %34 = getelementptr inbounds ptr, ptr %28, i64 %33
  %35 = load ptr, ptr %21, align 8
  %36 = getelementptr inbounds i8, ptr %35, i64 80
  %37 = load ptr, ptr %36, align 8
  %38 = getelementptr inbounds i8, ptr %37, i64 8
  %39 = load ptr, ptr %31, align 8
  %40 = sext i32 %.014 to i64
  %41 = getelementptr inbounds ptr, ptr %39, i64 %40
  %42 = load ptr, ptr %41, align 8
  %43 = tail call noundef ptr @_ZN11CodeSection6targetER5LabelPh(ptr noundef nonnull align 8 dereferenceable(88) %38, ptr noundef nonnull align 8 dereferenceable(33) %42, ptr noundef %34) #10
  store ptr %43, ptr %34, align 8
  %44 = load ptr, ptr %21, align 8
  %45 = getelementptr inbounds i8, ptr %44, i64 80
  %46 = load ptr, ptr %45, align 8
  %47 = getelementptr inbounds i8, ptr %46, i64 8
  tail call void @_ZN11CodeSection8relocateEPhN9relocInfo9relocTypeEii(ptr noundef nonnull align 8 dereferenceable(88) %47, ptr noundef nonnull %34, i32 noundef 8, i32 noundef 0, i32 noundef 0) #10
  %48 = add nuw i32 %.014, 1
  %49 = load i32, ptr %29, align 8
  %50 = icmp ult i32 %48, %49
  br i1 %50, label %32, label %.loopexit, !llvm.loop !29

.loopexit:                                        ; preds = %32, %16, %4
  ret void
}